target datalayout = "e-m:e-p270:32:32-p271:32:32-p272:64:64-i64:64-i128:128-f80:128-n8:16:32:64-S128"
target triple = "x86_64-pc-linux-gnu"

%struct.Poly1305 = type { [3 x i64], [3 x i64], [2 x i64], i64, [16 x i8], i8 }

; Function Attrs: nounwind uwtable
define internal i32 @poly1305_block(ptr noundef %0, ptr noundef %1) #0 {
  %3 = alloca ptr, align 8
  %4 = alloca ptr, align 8
  store ptr %0, ptr %3, align 8, !tbaa !3
  store ptr %1, ptr %4, align 8, !tbaa !8
  %5 = load ptr, ptr %3, align 8, !tbaa !3
  %6 = load ptr, ptr %4, align 8, !tbaa !8
  %7 = call i32 @poly1305_blocks(ptr noundef %5, ptr noundef %6, i64 noundef 16)
  ret i32 %7
}

; Function Attrs: nounwind uwtable
define i32 @wc_Poly1305Update(ptr noundef %0, ptr noundef %1, i32 noundef %2) #0 {
  %4 = alloca i32, align 4
  %5 = alloca ptr, align 8
  %6 = alloca ptr, align 8
  %7 = alloca i32, align 4
  %8 = alloca i64, align 8
  %9 = alloca i32, align 4
  %10 = alloca i64, align 8
  %11 = alloca i64, align 8
  %12 = alloca i32, align 4
  store ptr %0, ptr %5, align 8, !tbaa !3
  store ptr %1, ptr %6, align 8, !tbaa !8
  store i32 %2, ptr %7, align 4, !tbaa !10
  call void @llvm.lifetime.start.p0(i64 8, ptr %8) #4
  %13 = load ptr, ptr %5, align 8, !tbaa !3
  %14 = icmp eq ptr %13, null
  br i1 %14, label %21, label %15

15:                                               ; preds = %3
  %16 = load ptr, ptr %6, align 8, !tbaa !8
  %17 = icmp eq ptr %16, null
  br i1 %17, label %18, label %22

18:                                               ; preds = %15
  %19 = load i32, ptr %7, align 4, !tbaa !10
  %20 = icmp ugt i32 %19, 0
  br i1 %20, label %21, label %22

21:                                               ; preds = %18, %3
  store i32 -173, ptr %4, align 4
  store i32 1, ptr %9, align 4
  br label %152

22:                                               ; preds = %18, %15
  %23 = load i32, ptr %7, align 4, !tbaa !10
  %24 = icmp eq i32 %23, 0
  br i1 %24, label %25, label %26

25:                                               ; preds = %22
  store i32 0, ptr %4, align 4
  store i32 1, ptr %9, align 4
  br label %152

26:                                               ; preds = %22
  %27 = load ptr, ptr %5, align 8, !tbaa !3
  %28 = getelementptr inbounds nuw %struct.Poly1305, ptr %27, i32 0, i32 3
  %29 = load i64, ptr %28, align 8, !tbaa !14
  %30 = icmp ne i64 %29, 0
  br i1 %30, label %31, label %93

31:                                               ; preds = %26
  call void @llvm.lifetime.start.p0(i64 8, ptr %10) #4
  %32 = load ptr, ptr %5, align 8, !tbaa !3
  %33 = getelementptr inbounds nuw %struct.Poly1305, ptr %32, i32 0, i32 3
  %34 = load i64, ptr %33, align 8, !tbaa !14
  %35 = sub i64 16, %34
  store i64 %35, ptr %10, align 8, !tbaa !12
  %36 = load i64, ptr %10, align 8, !tbaa !12
  %37 = load i32, ptr %7, align 4, !tbaa !10
  %38 = zext i32 %37 to i64
  %39 = icmp ugt i64 %36, %38
  br i1 %39, label %40, label %43

40:                                               ; preds = %31
  %41 = load i32, ptr %7, align 4, !tbaa !10
  %42 = zext i32 %41 to i64
  store i64 %42, ptr %10, align 8, !tbaa !12
  br label %43

43:                                               ; preds = %40, %31
  store i64 0, ptr %8, align 8, !tbaa !12
  br label %44

44:                                               ; preds = %61, %43
  %45 = load i64, ptr %8, align 8, !tbaa !12
  %46 = load i64, ptr %10, align 8, !tbaa !12
  %47 = icmp ult i64 %45, %46
  br i1 %47, label %48, label %64

48:                                               ; preds = %44
  %49 = load ptr, ptr %6, align 8, !tbaa !8
  %50 = load i64, ptr %8, align 8, !tbaa !12
  %51 = getelementptr inbounds nuw i8, ptr %49, i64 %50
  %52 = load i8, ptr %51, align 1, !tbaa !17
  %53 = load ptr, ptr %5, align 8, !tbaa !3
  %54 = getelementptr inbounds nuw %struct.Poly1305, ptr %53, i32 0, i32 4
  %55 = load ptr, ptr %5, align 8, !tbaa !3
  %56 = getelementptr inbounds nuw %struct.Poly1305, ptr %55, i32 0, i32 3
  %57 = load i64, ptr %56, align 8, !tbaa !14
  %58 = load i64, ptr %8, align 8, !tbaa !12
  %59 = add i64 %57, %58
  %60 = getelementptr inbounds nuw [16 x i8], ptr %54, i64 0, i64 %59
  store i8 %52, ptr %60, align 1, !tbaa !17
  br label %61

61:                                               ; preds = %48
  %62 = load i64, ptr %8, align 8, !tbaa !12
  %63 = add i64 %62, 1
  store i64 %63, ptr %8, align 8, !tbaa !12
  br label %44, !llvm.loop !20

64:                                               ; preds = %44
  %65 = load i64, ptr %10, align 8, !tbaa !12
  %66 = trunc i64 %65 to i32
  %67 = load i32, ptr %7, align 4, !tbaa !10
  %68 = sub i32 %67, %66
  store i32 %68, ptr %7, align 4, !tbaa !10
  %69 = load i64, ptr %10, align 8, !tbaa !12
  %70 = load ptr, ptr %6, align 8, !tbaa !8
  %71 = getelementptr inbounds nuw i8, ptr %70, i64 %69
  store ptr %71, ptr %6, align 8, !tbaa !8
  %72 = load i64, ptr %10, align 8, !tbaa !12
  %73 = load ptr, ptr %5, align 8, !tbaa !3
  %74 = getelementptr inbounds nuw %struct.Poly1305, ptr %73, i32 0, i32 3
  %75 = load i64, ptr %74, align 8, !tbaa !14
  %76 = add i64 %75, %72
  store i64 %76, ptr %74, align 8, !tbaa !14
  %77 = load ptr, ptr %5, align 8, !tbaa !3
  %78 = getelementptr inbounds nuw %struct.Poly1305, ptr %77, i32 0, i32 3
  %79 = load i64, ptr %78, align 8, !tbaa !14
  %80 = icmp ult i64 %79, 16
  br i1 %80, label %81, label %82

81:                                               ; preds = %64
  store i32 0, ptr %4, align 4
  store i32 1, ptr %9, align 4
  br label %90

82:                                               ; preds = %64
  %83 = load ptr, ptr %5, align 8, !tbaa !3
  %84 = load ptr, ptr %5, align 8, !tbaa !3
  %85 = getelementptr inbounds nuw %struct.Poly1305, ptr %84, i32 0, i32 4
  %86 = getelementptr inbounds [16 x i8], ptr %85, i64 0, i64 0
  %87 = call i32 @poly1305_block(ptr noundef %83, ptr noundef %86)
  %88 = load ptr, ptr %5, align 8, !tbaa !3
  %89 = getelementptr inbounds nuw %struct.Poly1305, ptr %88, i32 0, i32 3
  store i64 0, ptr %89, align 8, !tbaa !14
  store i32 0, ptr %9, align 4
  br label %90

90:                                               ; preds = %82, %81
  call void @llvm.lifetime.end.p0(i64 8, ptr %10) #4
  %91 = load i32, ptr %9, align 4
  switch i32 %91, label %152 [
    i32 0, label %92
  ]

92:                                               ; preds = %90
  br label %93

93:                                               ; preds = %92, %26
  %94 = load i32, ptr %7, align 4, !tbaa !10
  %95 = icmp uge i32 %94, 16
  br i1 %95, label %96, label %119

96:                                               ; preds = %93
  call void @llvm.lifetime.start.p0(i64 8, ptr %11) #4
  %97 = load i32, ptr %7, align 4, !tbaa !10
  %98 = zext i32 %97 to i64
  %99 = and i64 %98, -16
  store i64 %99, ptr %11, align 8, !tbaa !12
  call void @llvm.lifetime.start.p0(i64 4, ptr %12) #4
  %100 = load ptr, ptr %5, align 8, !tbaa !3
  %101 = load ptr, ptr %6, align 8, !tbaa !8
  %102 = load i64, ptr %11, align 8, !tbaa !12
  %103 = call i32 @poly1305_blocks(ptr noundef %100, ptr noundef %101, i64 noundef %102)
  store i32 %103, ptr %12, align 4, !tbaa !10
  %104 = load i32, ptr %12, align 4, !tbaa !10
  %105 = icmp ne i32 %104, 0
  br i1 %105, label %106, label %108

106:                                              ; preds = %96
  %107 = load i32, ptr %12, align 4, !tbaa !10
  store i32 %107, ptr %4, align 4
  store i32 1, ptr %9, align 4
  br label %116

108:                                              ; preds = %96
  %109 = load i64, ptr %11, align 8, !tbaa !12
  %110 = load ptr, ptr %6, align 8, !tbaa !8
  %111 = getelementptr inbounds nuw i8, ptr %110, i64 %109
  store ptr %111, ptr %6, align 8, !tbaa !8
  %112 = load i64, ptr %11, align 8, !tbaa !12
  %113 = trunc i64 %112 to i32
  %114 = load i32, ptr %7, align 4, !tbaa !10
  %115 = sub i32 %114, %113
  store i32 %115, ptr %7, align 4, !tbaa !10
  store i32 0, ptr %9, align 4
  br label %116

116:                                              ; preds = %108, %106
  call void @llvm.lifetime.end.p0(i64 4, ptr %12) #4
  call void @llvm.lifetime.end.p0(i64 8, ptr %11) #4
  %117 = load i32, ptr %9, align 4
  switch i32 %117, label %152 [
    i32 0, label %118
  ]

118:                                              ; preds = %116
  br label %119

119:                                              ; preds = %118, %93
  %120 = load i32, ptr %7, align 4, !tbaa !10
  %121 = icmp ne i32 %120, 0
  br i1 %121, label %122, label %151

122:                                              ; preds = %119
  store i64 0, ptr %8, align 8, !tbaa !12
  br label %123

123:                                              ; preds = %141, %122
  %124 = load i64, ptr %8, align 8, !tbaa !12
  %125 = load i32, ptr %7, align 4, !tbaa !10
  %126 = zext i32 %125 to i64
  %127 = icmp ult i64 %124, %126
  br i1 %127, label %128, label %144

128:                                              ; preds = %123
  %129 = load ptr, ptr %6, align 8, !tbaa !8
  %130 = load i64, ptr %8, align 8, !tbaa !12
  %131 = getelementptr inbounds nuw i8, ptr %129, i64 %130
  %132 = load i8, ptr %131, align 1, !tbaa !17
  %133 = load ptr, ptr %5, align 8, !tbaa !3
  %134 = getelementptr inbounds nuw %struct.Poly1305, ptr %133, i32 0, i32 4
  %135 = load ptr, ptr %5, align 8, !tbaa !3
  %136 = getelementptr inbounds nuw %struct.Poly1305, ptr %135, i32 0, i32 3
  %137 = load i64, ptr %136, align 8, !tbaa !14
  %138 = load i64, ptr %8, align 8, !tbaa !12
  %139 = add i64 %137, %138
  %140 = getelementptr inbounds nuw [16 x i8], ptr %134, i64 0, i64 %139
  store i8 %132, ptr %140, align 1, !tbaa !17
  br label %141

141:                                              ; preds = %128
  %142 = load i64, ptr %8, align 8, !tbaa !12
  %143 = add i64 %142, 1
  store i64 %143, ptr %8, align 8, !tbaa !12
  br label %123, !llvm.loop !21

144:                                              ; preds = %123
  %145 = load i32, ptr %7, align 4, !tbaa !10
  %146 = zext i32 %145 to i64
  %147 = load ptr, ptr %5, align 8, !tbaa !3
  %148 = getelementptr inbounds nuw %struct.Poly1305, ptr %147, i32 0, i32 3
  %149 = load i64, ptr %148, align 8, !tbaa !14
  %150 = add i64 %149, %146
  store i64 %150, ptr %148, align 8, !tbaa !14
  br label %151

151:                                              ; preds = %144, %119
  store i32 0, ptr %4, align 4
  store i32 1, ptr %9, align 4
  br label %152

152:                                              ; preds = %151, %116, %90, %25, %21
  call void @llvm.lifetime.end.p0(i64 8, ptr %8) #4
  %153 = load i32, ptr %4, align 4
  ret i32 %153
}

; Function Attrs: nounwind uwtable
define i32 @wc_Poly1305_Pad(ptr noundef %0, i32 noundef %1) #0 {
  %3 = alloca i32, align 4
  %4 = alloca ptr, align 8
  %5 = alloca i32, align 4
  %6 = alloca i32, align 4
  %7 = alloca i32, align 4
  %8 = alloca [15 x i8], align 1
  %9 = alloca i32, align 4
  store ptr %0, ptr %4, align 8, !tbaa !3
  store i32 %1, ptr %5, align 4, !tbaa !10
  call void @llvm.lifetime.start.p0(i64 4, ptr %6) #4
  store i32 0, ptr %6, align 4, !tbaa !10
  call void @llvm.lifetime.start.p0(i64 4, ptr %7) #4
  call void @llvm.lifetime.start.p0(i64 15, ptr %8) #4
  %10 = load ptr, ptr %4, align 8, !tbaa !3
  %11 = icmp eq ptr %10, null
  br i1 %11, label %12, label %13

12:                                               ; preds = %2
  store i32 -173, ptr %3, align 4
  store i32 1, ptr %9, align 4
  br label %34

13:                                               ; preds = %2
  %14 = load i32, ptr %5, align 4, !tbaa !10
  %15 = icmp eq i32 %14, 0
  br i1 %15, label %16, label %17

16:                                               ; preds = %13
  store i32 0, ptr %3, align 4
  store i32 1, ptr %9, align 4
  br label %34

17:                                               ; preds = %13
  %18 = getelementptr inbounds [15 x i8], ptr %8, i64 0, i64 0
  call void @llvm.memset.p0.i64(ptr align 1 %18, i8 0, i64 15, i1 false)
  %19 = load i32, ptr %5, align 4, !tbaa !10
  %20 = sub nsw i32 0, %19
  %21 = and i32 %20, 15
  store i32 %21, ptr %7, align 4, !tbaa !10
  %22 = load i32, ptr %7, align 4, !tbaa !10
  %23 = icmp ugt i32 %22, 0
  br i1 %23, label %24, label %32

24:                                               ; preds = %17
  %25 = load i32, ptr %7, align 4, !tbaa !10
  %26 = icmp ult i32 %25, 16
  br i1 %26, label %27, label %32

27:                                               ; preds = %24
  %28 = load ptr, ptr %4, align 8, !tbaa !3
  %29 = getelementptr inbounds [15 x i8], ptr %8, i64 0, i64 0
  %30 = load i32, ptr %7, align 4, !tbaa !10
  %31 = call i32 @wc_Poly1305Update(ptr noundef %28, ptr noundef %29, i32 noundef %30)
  store i32 %31, ptr %6, align 4, !tbaa !10
  br label %32

32:                                               ; preds = %27, %24, %17
  %33 = load i32, ptr %6, align 4, !tbaa !10
  store i32 %33, ptr %3, align 4
  store i32 1, ptr %9, align 4
  br label %34

34:                                               ; preds = %32, %16, %12
  call void @llvm.lifetime.end.p0(i64 15, ptr %8) #4
  call void @llvm.lifetime.end.p0(i64 4, ptr %7) #4
  call void @llvm.lifetime.end.p0(i64 4, ptr %6) #4
  %35 = load i32, ptr %3, align 4
  ret i32 %35
}