; Function Attrs: nofree norecurse nosync nounwind memory(argmem: readwrite) uwtable
define range(i32 -173, 1) i32 @wc_Poly1305_Pad(ptr noundef captures(address_is_null) %0, i32 noundef %1) local_unnamed_addr #2 {
  %3 = alloca [15 x i8], align 1
  call void @llvm.lifetime.start.p0(i64 15, ptr nonnull %3) #6
  %4 = icmp eq ptr %0, null
  br i1 %4, label %wc_Poly1305Update.exit, label %5

5:                                                ; preds = %2
  %6 = icmp eq i32 %1, 0
  br i1 %6, label %wc_Poly1305Update.exit, label %7

7:                                                ; preds = %5
  call void @llvm.memset.p0.i64(ptr noundef nonnull align 1 dereferenceable(15) %3, i8 0, i64 15, i1 false)
  %8 = sub nsw i32 0, %1
  %9 = and i32 %8, 15
  %.not = icmp eq i32 %9, 0
  br i1 %.not, label %wc_Poly1305Update.exit, label %10

10:                                               ; preds = %7
  %11 = getelementptr inbounds nuw i8, ptr %0, i64 64
  %12 = load i64, ptr %11, align 8, !tbaa !7
  %.not.i = icmp eq i64 %12, 0
  br i1 %.not.i, label %.preheader.i, label %13

13:                                               ; preds = %10
  %14 = sub i64 16, %12
  %15 = zext nneg i32 %9 to i64
  %spec.select.i = tail call i64 @llvm.umin.i64(i64 %14, i64 %15)
  %.not74.i = icmp eq i64 %12, 16
  br i1 %.not74.i, label %._crit_edge.i, label %.lr.ph.i

.lr.ph.i:                                         ; preds = %13
  %umax.i = tail call i64 @llvm.umax.i64(i64 %spec.select.i, i64 1)
  %16 = getelementptr i8, ptr %0, i64 %12
  %scevgep = getelementptr i8, ptr %16, i64 72
  call void @llvm.memcpy.p0.p0.i64(ptr noundef nonnull align 1 dereferenceable(1) %scevgep, ptr noundef nonnull align 1 dereferenceable(1) %3, i64 %umax.i, i1 false), !tbaa !10
  br label %._crit_edge.i

._crit_edge.i:                                    ; preds = %.lr.ph.i, %13
  %17 = add i64 %spec.select.i, %12
  store i64 %17, ptr %11, align 8, !tbaa !7
  %18 = icmp ugt i64 %17, 15
  br i1 %18, label %19, label %wc_Poly1305Update.exit

19:                                               ; preds = %._crit_edge.i
  %20 = getelementptr inbounds nuw i8, ptr %3, i64 %spec.select.i
  %21 = trunc nuw nsw i64 %spec.select.i to i32
  %22 = sub nsw i32 %9, %21
  %23 = getelementptr inbounds nuw i8, ptr %0, i64 72
  tail call fastcc void @poly1305_blocks(ptr noundef nonnull %0, ptr noundef nonnull readonly %23, i64 noundef 16)
  store i64 0, ptr %11, align 8, !tbaa !7
  %24 = icmp ugt i32 %22, 15
  br i1 %24, label %25, label %30

25:                                               ; preds = %19
  %26 = and i32 %22, -16
  %27 = zext i32 %26 to i64
  call fastcc void @poly1305_blocks(ptr noundef nonnull %0, ptr noundef nonnull %20, i64 noundef %27)
  %28 = and i32 %22, 15
  %29 = getelementptr inbounds nuw i8, ptr %20, i64 %27
  br label %30

30:                                               ; preds = %25, %19
  %.162.i = phi i32 [ %28, %25 ], [ %22, %19 ]
  %.154.i = phi ptr [ %29, %25 ], [ %20, %19 ]
  %.not71.i = icmp eq i32 %.162.i, 0
  br i1 %.not71.i, label %wc_Poly1305Update.exit, label %..preheader.i_crit_edge

..preheader.i_crit_edge:                          ; preds = %30
  %.pre = load i64, ptr %11, align 8, !tbaa !7
  br label %.preheader.i

.preheader.i:                                     ; preds = %..preheader.i_crit_edge, %10
  %31 = phi i64 [ %.pre, %..preheader.i_crit_edge ], [ 0, %10 ]
  %.154.i20 = phi ptr [ %.154.i, %..preheader.i_crit_edge ], [ %3, %10 ]
  %.162.i19 = phi i32 [ %.162.i, %..preheader.i_crit_edge ], [ %9, %10 ]
  %32 = zext nneg i32 %.162.i19 to i64
  %33 = getelementptr inbounds nuw i8, ptr %0, i64 72
  br label %34

34:                                               ; preds = %34, %.preheader.i
  %.16073.i = phi i64 [ 0, %.preheader.i ], [ %39, %34 ]
  %35 = getelementptr inbounds nuw i8, ptr %.154.i20, i64 %.16073.i
  %36 = load i8, ptr %35, align 1, !tbaa !10
  %37 = add i64 %.16073.i, %31
  %38 = getelementptr inbounds nuw [16 x i8], ptr %33, i64 0, i64 %37
  store i8 %36, ptr %38, align 1, !tbaa !10
  %39 = add nuw nsw i64 %.16073.i, 1
  %exitcond75.not.i = icmp eq i64 %39, %32
  br i1 %exitcond75.not.i, label %40, label %34, !llvm.loop !13

40:                                               ; preds = %34
  %41 = add i64 %31, %32
  store i64 %41, ptr %11, align 8, !tbaa !7
  br label %wc_Poly1305Update.exit

wc_Poly1305Update.exit:                           ; preds = %40, %30, %._crit_edge.i, %7, %5, %2
  %.0 = phi i32 [ -173, %2 ], [ 0, %5 ], [ 0, %7 ], [ 0, %._crit_edge.i ], [ 0, %30 ], [ 0, %40 ]
  call void @llvm.lifetime.end.p0(i64 15, ptr nonnull %3) #6
  ret i32 %.0
}